
Power_out.elf:     file format elf32-avr

Sections:
Idx Name          Size      VMA       LMA       File off  Algn
  0 .text         0000055a  00000000  00000000  00000094  2**1
                  CONTENTS, ALLOC, LOAD, READONLY, CODE
  1 .data         00000002  00800060  0000055a  000005ee  2**0
                  CONTENTS, ALLOC, LOAD, DATA
  2 .bss          00000030  00800062  00800062  000005f0  2**0
                  ALLOC
  3 .stab         000011ac  00000000  00000000  000005f0  2**2
                  CONTENTS, READONLY, DEBUGGING
  4 .stabstr      00000fe7  00000000  00000000  0000179c  2**0
                  CONTENTS, READONLY, DEBUGGING
  5 .comment      00000011  00000000  00000000  00002783  2**0
                  CONTENTS, READONLY
  6 .note.gnu.avr.deviceinfo 0000003c  00000000  00000000  00002794  2**2
                  CONTENTS, READONLY

Disassembly of section .text:

00000000 <__vectors>:
   0:	0e c0       	rjmp	.+28     	; 0x1e <__ctors_end>
   2:	28 c0       	rjmp	.+80     	; 0x54 <__bad_interrupt>
   4:	62 c1       	rjmp	.+708    	; 0x2ca <__vector_2>
   6:	a1 c1       	rjmp	.+834    	; 0x34a <__vector_3>
   8:	25 c0       	rjmp	.+74     	; 0x54 <__bad_interrupt>
   a:	24 c0       	rjmp	.+72     	; 0x54 <__bad_interrupt>
   c:	23 c0       	rjmp	.+70     	; 0x54 <__bad_interrupt>
   e:	22 c0       	rjmp	.+68     	; 0x54 <__bad_interrupt>
  10:	21 c0       	rjmp	.+66     	; 0x54 <__bad_interrupt>
  12:	20 c0       	rjmp	.+64     	; 0x54 <__bad_interrupt>
  14:	1f c0       	rjmp	.+62     	; 0x54 <__bad_interrupt>
  16:	1e c0       	rjmp	.+60     	; 0x54 <__bad_interrupt>
  18:	1d c0       	rjmp	.+58     	; 0x54 <__bad_interrupt>
  1a:	ed c1       	rjmp	.+986    	; 0x3f6 <__vector_13>
  1c:	10 c2       	rjmp	.+1056   	; 0x43e <__vector_14>

0000001e <__ctors_end>:
  1e:	11 24       	eor	r1, r1
  20:	1f be       	out	0x3f, r1	; 63
  22:	cf e5       	ldi	r28, 0x5F	; 95
  24:	d2 e0       	ldi	r29, 0x02	; 2
  26:	de bf       	out	0x3e, r29	; 62
  28:	cd bf       	out	0x3d, r28	; 61

0000002a <__do_copy_data>:
  2a:	10 e0       	ldi	r17, 0x00	; 0
  2c:	a0 e6       	ldi	r26, 0x60	; 96
  2e:	b0 e0       	ldi	r27, 0x00	; 0
  30:	ea e5       	ldi	r30, 0x5A	; 90
  32:	f5 e0       	ldi	r31, 0x05	; 5
  34:	02 c0       	rjmp	.+4      	; 0x3a <__do_copy_data+0x10>
  36:	05 90       	lpm	r0, Z+
  38:	0d 92       	st	X+, r0
  3a:	a2 36       	cpi	r26, 0x62	; 98
  3c:	b1 07       	cpc	r27, r17
  3e:	d9 f7       	brne	.-10     	; 0x36 <__do_copy_data+0xc>

00000040 <__do_clear_bss>:
  40:	20 e0       	ldi	r18, 0x00	; 0
  42:	a2 e6       	ldi	r26, 0x62	; 98
  44:	b0 e0       	ldi	r27, 0x00	; 0
  46:	01 c0       	rjmp	.+2      	; 0x4a <.do_clear_bss_start>

00000048 <.do_clear_bss_loop>:
  48:	1d 92       	st	X+, r1

0000004a <.do_clear_bss_start>:
  4a:	a2 39       	cpi	r26, 0x92	; 146
  4c:	b2 07       	cpc	r27, r18
  4e:	e1 f7       	brne	.-8      	; 0x48 <.do_clear_bss_loop>
  50:	03 d1       	rcall	.+518    	; 0x258 <main>
  52:	81 c2       	rjmp	.+1282   	; 0x556 <_exit>

00000054 <__bad_interrupt>:
  54:	d5 cf       	rjmp	.-86     	; 0x0 <__vectors>

00000056 <BlinkCfg>:


/*******************************
 ************FUNKCIJE***********
 *******************************/
void BlinkCfg(Blink *ledica){
  56:	ef 92       	push	r14
  58:	ff 92       	push	r15
  5a:	0f 93       	push	r16
  5c:	1f 93       	push	r17
  5e:	cf 93       	push	r28
  60:	df 93       	push	r29
  62:	fc 01       	movw	r30, r24
	SETBIT(*(ledica->dir_port), ledica->pin);
  64:	80 81       	ld	r24, Z
  66:	c3 81       	ldd	r28, Z+3	; 0x03
  68:	d4 81       	ldd	r29, Z+4	; 0x04
  6a:	28 81       	ld	r18, Y
  6c:	41 e0       	ldi	r20, 0x01	; 1
  6e:	50 e0       	ldi	r21, 0x00	; 0
  70:	60 e0       	ldi	r22, 0x00	; 0
  72:	70 e0       	ldi	r23, 0x00	; 0
  74:	7a 01       	movw	r14, r20
  76:	8b 01       	movw	r16, r22
  78:	04 c0       	rjmp	.+8      	; 0x82 <BlinkCfg+0x2c>
  7a:	ee 0c       	add	r14, r14
  7c:	ff 1c       	adc	r15, r15
  7e:	00 1f       	adc	r16, r16
  80:	11 1f       	adc	r17, r17
  82:	8a 95       	dec	r24
  84:	d2 f7       	brpl	.-12     	; 0x7a <BlinkCfg+0x24>
  86:	d8 01       	movw	r26, r16
  88:	c7 01       	movw	r24, r14
  8a:	82 2b       	or	r24, r18
  8c:	88 83       	st	Y, r24
	if(ledica->value==1)SETBIT(*(ledica->port), ledica->pin);
  8e:	85 81       	ldd	r24, Z+5	; 0x05
  90:	90 81       	ld	r25, Z
  92:	01 80       	ldd	r0, Z+1	; 0x01
  94:	f2 81       	ldd	r31, Z+2	; 0x02
  96:	e0 2d       	mov	r30, r0
  98:	81 30       	cpi	r24, 0x01	; 1
  9a:	a9 f0       	breq	.+42     	; 0xc6 <BlinkCfg+0x70>
	else CLEARBIT(*(ledica->port), ledica->pin);
  9c:	80 81       	ld	r24, Z
  9e:	04 c0       	rjmp	.+8      	; 0xa8 <BlinkCfg+0x52>
  a0:	44 0f       	add	r20, r20
  a2:	55 1f       	adc	r21, r21
  a4:	66 1f       	adc	r22, r22
  a6:	77 1f       	adc	r23, r23
  a8:	9a 95       	dec	r25
  aa:	d2 f7       	brpl	.-12     	; 0xa0 <BlinkCfg+0x4a>
  ac:	40 95       	com	r20
  ae:	50 95       	com	r21
  b0:	60 95       	com	r22
  b2:	70 95       	com	r23
  b4:	48 23       	and	r20, r24
  b6:	40 83       	st	Z, r20
}
  b8:	df 91       	pop	r29
  ba:	cf 91       	pop	r28
  bc:	1f 91       	pop	r17
  be:	0f 91       	pop	r16
  c0:	ff 90       	pop	r15
  c2:	ef 90       	pop	r14
  c4:	08 95       	ret
/*******************************
 ************FUNKCIJE***********
 *******************************/
void BlinkCfg(Blink *ledica){
	SETBIT(*(ledica->dir_port), ledica->pin);
	if(ledica->value==1)SETBIT(*(ledica->port), ledica->pin);
  c6:	80 81       	ld	r24, Z
  c8:	04 c0       	rjmp	.+8      	; 0xd2 <BlinkCfg+0x7c>
  ca:	44 0f       	add	r20, r20
  cc:	55 1f       	adc	r21, r21
  ce:	66 1f       	adc	r22, r22
  d0:	77 1f       	adc	r23, r23
  d2:	9a 95       	dec	r25
  d4:	d2 f7       	brpl	.-12     	; 0xca <BlinkCfg+0x74>
  d6:	48 2b       	or	r20, r24
  d8:	40 83       	st	Z, r20
	else CLEARBIT(*(ledica->port), ledica->pin);
}
  da:	df 91       	pop	r29
  dc:	cf 91       	pop	r28
  de:	1f 91       	pop	r17
  e0:	0f 91       	pop	r16
  e2:	ff 90       	pop	r15
  e4:	ef 90       	pop	r14
  e6:	08 95       	ret

000000e8 <IOCfg>:
 *******************************/

Blink leds[LED_NUM];
Input zero;

void IOCfg(){
  e8:	cf 93       	push	r28
  ea:	df 93       	push	r29


	leds[0].pin = GRELEC;
  ec:	e4 e6       	ldi	r30, 0x64	; 100
  ee:	f0 e0       	ldi	r31, 0x00	; 0
  f0:	83 e0       	ldi	r24, 0x03	; 3
  f2:	80 83       	st	Z, r24
	leds[0].port=&GRELEC_PORT;
  f4:	28 e3       	ldi	r18, 0x38	; 56
  f6:	30 e0       	ldi	r19, 0x00	; 0
  f8:	32 83       	std	Z+2, r19	; 0x02
  fa:	21 83       	std	Z+1, r18	; 0x01
	leds[0].dir_port=&GRELEC_DIR_PORT;
  fc:	47 e3       	ldi	r20, 0x37	; 55
  fe:	50 e0       	ldi	r21, 0x00	; 0
 100:	54 83       	std	Z+4, r21	; 0x04
 102:	43 83       	std	Z+3, r20	; 0x03
	leds[0].value=1;
 104:	81 e0       	ldi	r24, 0x01	; 1
 106:	85 83       	std	Z+5, r24	; 0x05
	leds[0].duty=0;
 108:	10 86       	std	Z+8, r1	; 0x08

	leds[1].pin = LUC;
 10a:	94 e0       	ldi	r25, 0x04	; 4
 10c:	91 87       	std	Z+9, r25	; 0x09
	leds[1].port=&LUC_PORT;
 10e:	33 87       	std	Z+11, r19	; 0x0b
 110:	22 87       	std	Z+10, r18	; 0x0a
	leds[1].dir_port=&LUC_DIR_PORT;
 112:	55 87       	std	Z+13, r21	; 0x0d
 114:	44 87       	std	Z+12, r20	; 0x0c
	leds[1].value=1;
 116:	86 87       	std	Z+14, r24	; 0x0e
	leds[1].duty=0;
 118:	11 8a       	std	Z+17, r1	; 0x11

	zero.pin=ZERO;
 11a:	c6 e7       	ldi	r28, 0x76	; 118
 11c:	d0 e0       	ldi	r29, 0x00	; 0
 11e:	88 83       	st	Y, r24
	zero.dir_port=&ZERO_DIR_PORT;
 120:	5c 83       	std	Y+4, r21	; 0x04
 122:	4b 83       	std	Y+3, r20	; 0x03
	zero.port=&ZERO_PORT;
 124:	3a 83       	std	Y+2, r19	; 0x02
 126:	29 83       	std	Y+1, r18	; 0x01
	zero.value_reg=&ZERO_VALUE_REG;
 128:	26 e3       	ldi	r18, 0x36	; 54
 12a:	30 e0       	ldi	r19, 0x00	; 0
 12c:	3e 83       	std	Y+6, r19	; 0x06
 12e:	2d 83       	std	Y+5, r18	; 0x05
	zero.pcint=ZERO_PCINT;
 130:	8f 83       	std	Y+7, r24	; 0x07


	for (uint8_t i=0; i<LED_NUM;i++){
		BlinkCfg(&leds[i]);
 132:	cf 01       	movw	r24, r30
 134:	90 df       	rcall	.-224    	; 0x56 <BlinkCfg>
 136:	8d e6       	ldi	r24, 0x6D	; 109
 138:	90 e0       	ldi	r25, 0x00	; 0
 13a:	8d df       	rcall	.-230    	; 0x56 <BlinkCfg>
		CLEARBIT(*(ledica->port), ledica->pin);
	}
}

void InputCfg(Input *button){
	CLEARBIT(*(button->dir_port), button->pin);
 13c:	38 81       	ld	r19, Y
 13e:	eb 81       	ldd	r30, Y+3	; 0x03
 140:	fc 81       	ldd	r31, Y+4	; 0x04
 142:	20 81       	ld	r18, Z
 144:	81 e0       	ldi	r24, 0x01	; 1
 146:	90 e0       	ldi	r25, 0x00	; 0
 148:	a0 e0       	ldi	r26, 0x00	; 0
 14a:	b0 e0       	ldi	r27, 0x00	; 0
 14c:	ac 01       	movw	r20, r24
 14e:	bd 01       	movw	r22, r26
 150:	04 c0       	rjmp	.+8      	; 0x15a <IOCfg+0x72>
 152:	44 0f       	add	r20, r20
 154:	55 1f       	adc	r21, r21
 156:	66 1f       	adc	r22, r22
 158:	77 1f       	adc	r23, r23
 15a:	3a 95       	dec	r19
 15c:	d2 f7       	brpl	.-12     	; 0x152 <IOCfg+0x6a>
 15e:	40 95       	com	r20
 160:	50 95       	com	r21
 162:	60 95       	com	r22
 164:	70 95       	com	r23
 166:	42 23       	and	r20, r18
 168:	40 83       	st	Z, r20
	SETBIT(*(button->port), button->pin);
 16a:	38 81       	ld	r19, Y
 16c:	e9 81       	ldd	r30, Y+1	; 0x01
 16e:	fa 81       	ldd	r31, Y+2	; 0x02
 170:	20 81       	ld	r18, Z
 172:	ac 01       	movw	r20, r24
 174:	bd 01       	movw	r22, r26
 176:	04 c0       	rjmp	.+8      	; 0x180 <IOCfg+0x98>
 178:	44 0f       	add	r20, r20
 17a:	55 1f       	adc	r21, r21
 17c:	66 1f       	adc	r22, r22
 17e:	77 1f       	adc	r23, r23
 180:	3a 95       	dec	r19
 182:	d2 f7       	brpl	.-12     	; 0x178 <IOCfg+0x90>
 184:	42 2b       	or	r20, r18
 186:	40 83       	st	Z, r20
	for (uint8_t i=0; i<LED_NUM;i++){
		BlinkCfg(&leds[i]);
	}

	InputCfg(&zero);
	CLEARBIT(*zero.port, zero.pin);
 188:	38 81       	ld	r19, Y
 18a:	e9 81       	ldd	r30, Y+1	; 0x01
 18c:	fa 81       	ldd	r31, Y+2	; 0x02
 18e:	20 81       	ld	r18, Z
 190:	04 c0       	rjmp	.+8      	; 0x19a <IOCfg+0xb2>
 192:	88 0f       	add	r24, r24
 194:	99 1f       	adc	r25, r25
 196:	aa 1f       	adc	r26, r26
 198:	bb 1f       	adc	r27, r27
 19a:	3a 95       	dec	r19
 19c:	d2 f7       	brpl	.-12     	; 0x192 <IOCfg+0xaa>
 19e:	80 95       	com	r24
 1a0:	90 95       	com	r25
 1a2:	a0 95       	com	r26
 1a4:	b0 95       	com	r27
 1a6:	82 23       	and	r24, r18
 1a8:	80 83       	st	Z, r24
};
 1aa:	df 91       	pop	r29
 1ac:	cf 91       	pop	r28
 1ae:	08 95       	ret

000001b0 <SetValue>:
	SETBIT(*(ledica->dir_port), ledica->pin);
	if(ledica->value==1)SETBIT(*(ledica->port), ledica->pin);
	else CLEARBIT(*(ledica->port), ledica->pin);
}

void SetValue(Blink *ledica){
 1b0:	fc 01       	movw	r30, r24
	if(ledica->value==1){
 1b2:	85 81       	ldd	r24, Z+5	; 0x05
		SETBIT(*(ledica->port), ledica->pin);
 1b4:	30 81       	ld	r19, Z
 1b6:	01 80       	ldd	r0, Z+1	; 0x01
 1b8:	f2 81       	ldd	r31, Z+2	; 0x02
 1ba:	e0 2d       	mov	r30, r0
 1bc:	20 81       	ld	r18, Z
	if(ledica->value==1)SETBIT(*(ledica->port), ledica->pin);
	else CLEARBIT(*(ledica->port), ledica->pin);
}

void SetValue(Blink *ledica){
	if(ledica->value==1){
 1be:	81 30       	cpi	r24, 0x01	; 1
 1c0:	91 f0       	breq	.+36     	; 0x1e6 <SetValue+0x36>
		SETBIT(*(ledica->port), ledica->pin);
	}
	else {
		CLEARBIT(*(ledica->port), ledica->pin);
 1c2:	81 e0       	ldi	r24, 0x01	; 1
 1c4:	90 e0       	ldi	r25, 0x00	; 0
 1c6:	a0 e0       	ldi	r26, 0x00	; 0
 1c8:	b0 e0       	ldi	r27, 0x00	; 0
 1ca:	04 c0       	rjmp	.+8      	; 0x1d4 <SetValue+0x24>
 1cc:	88 0f       	add	r24, r24
 1ce:	99 1f       	adc	r25, r25
 1d0:	aa 1f       	adc	r26, r26
 1d2:	bb 1f       	adc	r27, r27
 1d4:	3a 95       	dec	r19
 1d6:	d2 f7       	brpl	.-12     	; 0x1cc <SetValue+0x1c>
 1d8:	80 95       	com	r24
 1da:	90 95       	com	r25
 1dc:	a0 95       	com	r26
 1de:	b0 95       	com	r27
 1e0:	82 23       	and	r24, r18
 1e2:	80 83       	st	Z, r24
 1e4:	08 95       	ret
	else CLEARBIT(*(ledica->port), ledica->pin);
}

void SetValue(Blink *ledica){
	if(ledica->value==1){
		SETBIT(*(ledica->port), ledica->pin);
 1e6:	81 e0       	ldi	r24, 0x01	; 1
 1e8:	90 e0       	ldi	r25, 0x00	; 0
 1ea:	a0 e0       	ldi	r26, 0x00	; 0
 1ec:	b0 e0       	ldi	r27, 0x00	; 0
 1ee:	04 c0       	rjmp	.+8      	; 0x1f8 <SetValue+0x48>
 1f0:	88 0f       	add	r24, r24
 1f2:	99 1f       	adc	r25, r25
 1f4:	aa 1f       	adc	r26, r26
 1f6:	bb 1f       	adc	r27, r27
 1f8:	3a 95       	dec	r19
 1fa:	d2 f7       	brpl	.-12     	; 0x1f0 <SetValue+0x40>
 1fc:	82 2b       	or	r24, r18
 1fe:	80 83       	st	Z, r24
 200:	08 95       	ret

00000202 <InputCfg>:
	else {
		CLEARBIT(*(ledica->port), ledica->pin);
	}
}

void InputCfg(Input *button){
 202:	0f 93       	push	r16
 204:	1f 93       	push	r17
 206:	fc 01       	movw	r30, r24
	CLEARBIT(*(button->dir_port), button->pin);
 208:	90 81       	ld	r25, Z
 20a:	a3 81       	ldd	r26, Z+3	; 0x03
 20c:	b4 81       	ldd	r27, Z+4	; 0x04
 20e:	8c 91       	ld	r24, X
 210:	41 e0       	ldi	r20, 0x01	; 1
 212:	50 e0       	ldi	r21, 0x00	; 0
 214:	60 e0       	ldi	r22, 0x00	; 0
 216:	70 e0       	ldi	r23, 0x00	; 0
 218:	8a 01       	movw	r16, r20
 21a:	9b 01       	movw	r18, r22
 21c:	04 c0       	rjmp	.+8      	; 0x226 <InputCfg+0x24>
 21e:	00 0f       	add	r16, r16
 220:	11 1f       	adc	r17, r17
 222:	22 1f       	adc	r18, r18
 224:	33 1f       	adc	r19, r19
 226:	9a 95       	dec	r25
 228:	d2 f7       	brpl	.-12     	; 0x21e <InputCfg+0x1c>
 22a:	00 95       	com	r16
 22c:	10 95       	com	r17
 22e:	20 95       	com	r18
 230:	30 95       	com	r19
 232:	08 23       	and	r16, r24
 234:	0c 93       	st	X, r16
	SETBIT(*(button->port), button->pin);
 236:	90 81       	ld	r25, Z
 238:	01 80       	ldd	r0, Z+1	; 0x01
 23a:	f2 81       	ldd	r31, Z+2	; 0x02
 23c:	e0 2d       	mov	r30, r0
 23e:	80 81       	ld	r24, Z
 240:	04 c0       	rjmp	.+8      	; 0x24a <InputCfg+0x48>
 242:	44 0f       	add	r20, r20
 244:	55 1f       	adc	r21, r21
 246:	66 1f       	adc	r22, r22
 248:	77 1f       	adc	r23, r23
 24a:	9a 95       	dec	r25
 24c:	d2 f7       	brpl	.-12     	; 0x242 <InputCfg+0x40>
 24e:	48 2b       	or	r20, r24
 250:	40 83       	st	Z, r20
}
 252:	1f 91       	pop	r17
 254:	0f 91       	pop	r16
 256:	08 95       	ret

00000258 <main>:
char usi_i2c_slave_address=0x41;

uint8_t cnt;
Input zero;

int main(void){
 258:	cf 93       	push	r28
 25a:	df 93       	push	r29
 25c:	00 d0       	rcall	.+0      	; 0x25e <main+0x6>
 25e:	cd b7       	in	r28, 0x3d	; 61
 260:	de b7       	in	r29, 0x3e	; 62

	sei();
 262:	78 94       	sei
	char b;
	char error;
	char wtchdog;

	// inicializacija vhodnih in izhodnih pinov ter struktur
	IOCfg();
 264:	41 df       	rcall	.-382    	; 0xe8 <IOCfg>
	//OCR1A=0x99;
	//SETBIT(TIMSK, OCIE1A);


	// I2C inicializacija z naslovom 0x41
	USI_I2C_Init(0x41);
 266:	81 e4       	ldi	r24, 0x41	; 65
 268:	ba d0       	rcall	.+372    	; 0x3de <USI_I2C_Init>


	// interni registri I2C komunikacije

	// izhod za grelec
	USI_Slave_register_buffer[0]=&leds[0].value;
 26a:	89 e6       	ldi	r24, 0x69	; 105
 26c:	90 e0       	ldi	r25, 0x00	; 0
 26e:	90 93 82 00 	sts	0x0082, r25	; 0x800082 <USI_Slave_register_buffer+0x1>
 272:	80 93 81 00 	sts	0x0081, r24	; 0x800081 <USI_Slave_register_buffer>
	// izhod za luc
	USI_Slave_register_buffer[1]=&leds[1].value;
 276:	82 e7       	ldi	r24, 0x72	; 114
 278:	90 e0       	ldi	r25, 0x00	; 0
 27a:	90 93 84 00 	sts	0x0084, r25	; 0x800084 <USI_Slave_register_buffer+0x3>
 27e:	80 93 83 00 	sts	0x0083, r24	; 0x800083 <USI_Slave_register_buffer+0x2>
	// register za napake
	USI_Slave_register_buffer[2]=&error;
 282:	ce 01       	movw	r24, r28
 284:	02 96       	adiw	r24, 0x02	; 2
 286:	90 93 86 00 	sts	0x0086, r25	; 0x800086 <USI_Slave_register_buffer+0x5>
 28a:	80 93 85 00 	sts	0x0085, r24	; 0x800085 <USI_Slave_register_buffer+0x4>
	// watchdog (ni še)
	USI_Slave_register_buffer[3]=&wtchdog;
 28e:	01 97       	sbiw	r24, 0x01	; 1
 290:	90 93 88 00 	sts	0x0088, r25	; 0x800088 <USI_Slave_register_buffer+0x7>
 294:	80 93 87 00 	sts	0x0087, r24	; 0x800087 <USI_Slave_register_buffer+0x6>
	#else
		//round up by default
		__ticks_dc = (uint32_t)(ceil(fabs(__tmp)));
	#endif

	__builtin_avr_delay_cycles(__ticks_dc);
 298:	2f ef       	ldi	r18, 0xFF	; 255
 29a:	89 e6       	ldi	r24, 0x69	; 105
 29c:	98 e1       	ldi	r25, 0x18	; 24
 29e:	21 50       	subi	r18, 0x01	; 1
 2a0:	80 40       	sbci	r24, 0x00	; 0
 2a2:	90 40       	sbci	r25, 0x00	; 0
 2a4:	e1 f7       	brne	.-8      	; 0x29e <__stack+0x3f>
 2a6:	00 c0       	rjmp	.+0      	; 0x2a8 <__stack+0x49>
 2a8:	00 00       	nop
	for(;;){
		//_delay_ms(100);
		//leds[0].duty=50;
		//leds[1].duty=50;
		for (uint8_t i=0; i<LED_NUM;i++){
			SetValue(&leds[i]);
 2aa:	84 e6       	ldi	r24, 0x64	; 100
 2ac:	90 e0       	ldi	r25, 0x00	; 0
 2ae:	80 df       	rcall	.-256    	; 0x1b0 <SetValue>
 2b0:	8d e6       	ldi	r24, 0x6D	; 109
 2b2:	90 e0       	ldi	r25, 0x00	; 0
 2b4:	7d df       	rcall	.-262    	; 0x1b0 <SetValue>
 2b6:	2f ef       	ldi	r18, 0xFF	; 255
 2b8:	89 e6       	ldi	r24, 0x69	; 105
 2ba:	98 e1       	ldi	r25, 0x18	; 24
 2bc:	21 50       	subi	r18, 0x01	; 1
 2be:	80 40       	sbci	r24, 0x00	; 0
 2c0:	90 40       	sbci	r25, 0x00	; 0
 2c2:	e1 f7       	brne	.-8      	; 0x2bc <__stack+0x5d>
 2c4:	00 c0       	rjmp	.+0      	; 0x2c6 <__stack+0x67>
 2c6:	00 00       	nop
 2c8:	f0 cf       	rjmp	.-32     	; 0x2aa <__stack+0x4b>

000002ca <__vector_2>:
	}
	return 0;
}


ISR(PCINT0_vect){
 2ca:	1f 92       	push	r1
 2cc:	0f 92       	push	r0
 2ce:	0f b6       	in	r0, 0x3f	; 63
 2d0:	0f 92       	push	r0
 2d2:	11 24       	eor	r1, r1
 2d4:	2f 93       	push	r18
 2d6:	3f 93       	push	r19
 2d8:	4f 93       	push	r20
 2da:	5f 93       	push	r21
 2dc:	6f 93       	push	r22
 2de:	7f 93       	push	r23
 2e0:	8f 93       	push	r24
 2e2:	9f 93       	push	r25
 2e4:	af 93       	push	r26
 2e6:	bf 93       	push	r27
 2e8:	cf 93       	push	r28
 2ea:	ef 93       	push	r30
 2ec:	ff 93       	push	r31
	if(BITVAL(*zero.value_reg,zero.pin)){
 2ee:	e0 91 7b 00 	lds	r30, 0x007B	; 0x80007b <zero+0x5>
 2f2:	f0 91 7c 00 	lds	r31, 0x007C	; 0x80007c <zero+0x6>
 2f6:	80 81       	ld	r24, Z
 2f8:	20 91 76 00 	lds	r18, 0x0076	; 0x800076 <zero>
 2fc:	90 e0       	ldi	r25, 0x00	; 0
 2fe:	02 c0       	rjmp	.+4      	; 0x304 <__vector_2+0x3a>
 300:	95 95       	asr	r25
 302:	87 95       	ror	r24
 304:	2a 95       	dec	r18
 306:	e2 f7       	brpl	.-8      	; 0x300 <__vector_2+0x36>
 308:	80 ff       	sbrs	r24, 0
 30a:	0d c0       	rjmp	.+26     	; 0x326 <__vector_2+0x5c>
		cnt=0;
 30c:	10 92 7e 00 	sts	0x007E, r1	; 0x80007e <cnt>
		for (uint8_t i=0; i<LED_NUM;i++){
//			if(!leds[i].duty){
//				leds[i].value=1;
//			}
//			else
				leds[i].value=1;
 310:	c1 e0       	ldi	r28, 0x01	; 1
 312:	c0 93 69 00 	sts	0x0069, r28	; 0x800069 <leds+0x5>

			SetValue(&leds[i]);
 316:	84 e6       	ldi	r24, 0x64	; 100
 318:	90 e0       	ldi	r25, 0x00	; 0
 31a:	4a df       	rcall	.-364    	; 0x1b0 <SetValue>
		for (uint8_t i=0; i<LED_NUM;i++){
//			if(!leds[i].duty){
//				leds[i].value=1;
//			}
//			else
				leds[i].value=1;
 31c:	c0 93 72 00 	sts	0x0072, r28	; 0x800072 <leds+0xe>

			SetValue(&leds[i]);
 320:	8d e6       	ldi	r24, 0x6D	; 109
 322:	90 e0       	ldi	r25, 0x00	; 0
 324:	45 df       	rcall	.-374    	; 0x1b0 <SetValue>
		}
	}
}
 326:	ff 91       	pop	r31
 328:	ef 91       	pop	r30
 32a:	cf 91       	pop	r28
 32c:	bf 91       	pop	r27
 32e:	af 91       	pop	r26
 330:	9f 91       	pop	r25
 332:	8f 91       	pop	r24
 334:	7f 91       	pop	r23
 336:	6f 91       	pop	r22
 338:	5f 91       	pop	r21
 33a:	4f 91       	pop	r20
 33c:	3f 91       	pop	r19
 33e:	2f 91       	pop	r18
 340:	0f 90       	pop	r0
 342:	0f be       	out	0x3f, r0	; 63
 344:	0f 90       	pop	r0
 346:	1f 90       	pop	r1
 348:	18 95       	reti

0000034a <__vector_3>:

ISR(TIM1_COMPA_vect){
 34a:	1f 92       	push	r1
 34c:	0f 92       	push	r0
 34e:	0f b6       	in	r0, 0x3f	; 63
 350:	0f 92       	push	r0
 352:	11 24       	eor	r1, r1
 354:	2f 93       	push	r18
 356:	3f 93       	push	r19
 358:	4f 93       	push	r20
 35a:	5f 93       	push	r21
 35c:	6f 93       	push	r22
 35e:	7f 93       	push	r23
 360:	8f 93       	push	r24
 362:	9f 93       	push	r25
 364:	af 93       	push	r26
 366:	bf 93       	push	r27
 368:	ef 93       	push	r30
 36a:	ff 93       	push	r31
	cnt++;
 36c:	80 91 7e 00 	lds	r24, 0x007E	; 0x80007e <cnt>
 370:	8f 5f       	subi	r24, 0xFF	; 255
 372:	80 93 7e 00 	sts	0x007E, r24	; 0x80007e <cnt>
	for (uint8_t i=0; i<LED_NUM;i++){
		if((100-leds[i].duty)<=cnt){
 376:	90 91 6c 00 	lds	r25, 0x006C	; 0x80006c <leds+0x8>
 37a:	24 e6       	ldi	r18, 0x64	; 100
 37c:	30 e0       	ldi	r19, 0x00	; 0
 37e:	29 1b       	sub	r18, r25
 380:	31 09       	sbc	r19, r1
 382:	48 2f       	mov	r20, r24
 384:	50 e0       	ldi	r21, 0x00	; 0
 386:	42 17       	cp	r20, r18
 388:	53 07       	cpc	r21, r19
 38a:	dc f4       	brge	.+54     	; 0x3c2 <__vector_3+0x78>
 38c:	90 91 75 00 	lds	r25, 0x0075	; 0x800075 <leds+0x11>
 390:	24 e6       	ldi	r18, 0x64	; 100
 392:	30 e0       	ldi	r19, 0x00	; 0
 394:	29 1b       	sub	r18, r25
 396:	31 09       	sbc	r19, r1
 398:	90 e0       	ldi	r25, 0x00	; 0
 39a:	82 17       	cp	r24, r18
 39c:	93 07       	cpc	r25, r19
 39e:	cc f4       	brge	.+50     	; 0x3d2 <__vector_3+0x88>
			leds[i].value=0;
			SetValue(&leds[i]);
		}
	}
 3a0:	ff 91       	pop	r31
 3a2:	ef 91       	pop	r30
 3a4:	bf 91       	pop	r27
 3a6:	af 91       	pop	r26
 3a8:	9f 91       	pop	r25
 3aa:	8f 91       	pop	r24
 3ac:	7f 91       	pop	r23
 3ae:	6f 91       	pop	r22
 3b0:	5f 91       	pop	r21
 3b2:	4f 91       	pop	r20
 3b4:	3f 91       	pop	r19
 3b6:	2f 91       	pop	r18
 3b8:	0f 90       	pop	r0
 3ba:	0f be       	out	0x3f, r0	; 63
 3bc:	0f 90       	pop	r0
 3be:	1f 90       	pop	r1
 3c0:	18 95       	reti

ISR(TIM1_COMPA_vect){
	cnt++;
	for (uint8_t i=0; i<LED_NUM;i++){
		if((100-leds[i].duty)<=cnt){
			leds[i].value=0;
 3c2:	10 92 69 00 	sts	0x0069, r1	; 0x800069 <leds+0x5>
			SetValue(&leds[i]);
 3c6:	84 e6       	ldi	r24, 0x64	; 100
 3c8:	90 e0       	ldi	r25, 0x00	; 0
 3ca:	f2 de       	rcall	.-540    	; 0x1b0 <SetValue>
 3cc:	80 91 7e 00 	lds	r24, 0x007E	; 0x80007e <cnt>
 3d0:	dd cf       	rjmp	.-70     	; 0x38c <__vector_3+0x42>

ISR(TIM1_COMPA_vect){
	cnt++;
	for (uint8_t i=0; i<LED_NUM;i++){
		if((100-leds[i].duty)<=cnt){
			leds[i].value=0;
 3d2:	10 92 72 00 	sts	0x0072, r1	; 0x800072 <leds+0xe>
			SetValue(&leds[i]);
 3d6:	8d e6       	ldi	r24, 0x6D	; 109
 3d8:	90 e0       	ldi	r25, 0x00	; 0
 3da:	ea de       	rcall	.-556    	; 0x1b0 <SetValue>
 3dc:	e1 cf       	rjmp	.-62     	; 0x3a0 <__vector_3+0x56>

000003de <USI_I2C_Init>:

////////////////////////////////////////////////////////////////////////////////////////////////////

void USI_I2C_Init(char address)
{
	PORT_USI &= ~(1 << PORT_USI_SCL);
 3de:	c2 98       	cbi	0x18, 2	; 24
	PORT_USI &= ~(1 << PORT_USI_SDA);
 3e0:	c0 98       	cbi	0x18, 0	; 24

	usi_i2c_slave_address = address;
 3e2:	80 93 60 00 	sts	0x0060, r24	; 0x800060 <__data_start>

	USI_SET_BOTH_INPUT();
 3e6:	87 b3       	in	r24, 0x17	; 23
 3e8:	8a 7f       	andi	r24, 0xFA	; 250
 3ea:	87 bb       	out	0x17, r24	; 23

	USICR = (1 << USISIE) | (0 << USIOIE) | (1 << USIWM1) | (0 << USIWM0) | (1 << USICS1) | (0 << USICS0) | (0 << USICLK) | (0 << USITC);
 3ec:	88 ea       	ldi	r24, 0xA8	; 168
 3ee:	8d b9       	out	0x0d, r24	; 13
	USISR = (1 << USISIF) | (1 << USIOIF) | (1 << USIPF) | (1 << USIDC);
 3f0:	80 ef       	ldi	r24, 0xF0	; 240
 3f2:	8e b9       	out	0x0e, r24	; 14
 3f4:	08 95       	ret

000003f6 <__vector_13>:
//  triggering the first state table interrupt.  If a stop condition occurs,   //
//  reset the start condition detector to detect the next start condition.     //
/////////////////////////////////////////////////////////////////////////////////

ISR(USI_START_vect)
{
 3f6:	1f 92       	push	r1
 3f8:	0f 92       	push	r0
 3fa:	0f b6       	in	r0, 0x3f	; 63
 3fc:	0f 92       	push	r0
 3fe:	11 24       	eor	r1, r1
 400:	8f 93       	push	r24
	USI_I2C_Slave_State = USI_SLAVE_CHECK_ADDRESS;
 402:	10 92 80 00 	sts	0x0080, r1	; 0x800080 <USI_I2C_Slave_State>
	USI_SET_SDA_INPUT();
 406:	b8 98       	cbi	0x17, 0	; 23
	// wait for SCL to go low to ensure the Start Condition has completed (the
	// start detector will hold SCL low ) - if a Stop Condition arises then leave
	// the interrupt to prevent waiting forever - don't use USISR to test for Stop
	// Condition as in Application Note AVR312 because the Stop Condition Flag is
	// going to be set from the last TWI sequence
	while((PIN_USI & (1 << PIN_USI_SCL)) && !((PIN_USI & (1 << PIN_USI_SDA))));
 408:	02 c0       	rjmp	.+4      	; 0x40e <__FUSE_REGION_LENGTH__+0xe>
 40a:	b0 99       	sbic	0x16, 0	; 22
 40c:	02 c0       	rjmp	.+4      	; 0x412 <__FUSE_REGION_LENGTH__+0x12>
 40e:	b2 99       	sbic	0x16, 2	; 22
 410:	fc cf       	rjmp	.-8      	; 0x40a <__FUSE_REGION_LENGTH__+0xa>
	if(!(PIN_USI & (1 << PIN_USI_SDA)))
 412:	b0 9b       	sbis	0x16, 0	; 22
 414:	0a c0       	rjmp	.+20     	; 0x42a <__FUSE_REGION_LENGTH__+0x2a>
		USICR = USI_SLAVE_STOP_NOT_OCCUR_USICR;
	}
	else
	{
		// a Stop Condition did occur
    	USICR = USI_SLAVE_STOP_DID_OCCUR_USICR;
 416:	88 eb       	ldi	r24, 0xB8	; 184
 418:	8d b9       	out	0x0d, r24	; 13
	}
	USISR = USI_SLAVE_CLEAR_START_USISR;
 41a:	80 ef       	ldi	r24, 0xF0	; 240
 41c:	8e b9       	out	0x0e, r24	; 14
}
 41e:	8f 91       	pop	r24
 420:	0f 90       	pop	r0
 422:	0f be       	out	0x3f, r0	; 63
 424:	0f 90       	pop	r0
 426:	1f 90       	pop	r1
 428:	18 95       	reti
	// going to be set from the last TWI sequence
	while((PIN_USI & (1 << PIN_USI_SCL)) && !((PIN_USI & (1 << PIN_USI_SDA))));
	if(!(PIN_USI & (1 << PIN_USI_SDA)))
	{
		// a Stop Condition did not occur
		USICR = USI_SLAVE_STOP_NOT_OCCUR_USICR;
 42a:	88 ee       	ldi	r24, 0xE8	; 232
 42c:	8d b9       	out	0x0d, r24	; 13
	else
	{
		// a Stop Condition did occur
    	USICR = USI_SLAVE_STOP_DID_OCCUR_USICR;
	}
	USISR = USI_SLAVE_CLEAR_START_USISR;
 42e:	80 ef       	ldi	r24, 0xF0	; 240
 430:	8e b9       	out	0x0e, r24	; 14
}
 432:	8f 91       	pop	r24
 434:	0f 90       	pop	r0
 436:	0f be       	out	0x3f, r0	; 63
 438:	0f 90       	pop	r0
 43a:	1f 90       	pop	r1
 43c:	18 95       	reti

0000043e <__vector_14>:
//  This is used to set up a state table of I2C transmission states that fits  //
//  the I2C protocol for proper transmission.                                  //
/////////////////////////////////////////////////////////////////////////////////

ISR(USI_OVF_vect)
{
 43e:	1f 92       	push	r1
 440:	0f 92       	push	r0
 442:	0f b6       	in	r0, 0x3f	; 63
 444:	0f 92       	push	r0
 446:	11 24       	eor	r1, r1
 448:	8f 93       	push	r24
 44a:	9f 93       	push	r25
 44c:	ef 93       	push	r30
 44e:	ff 93       	push	r31
	switch (USI_I2C_Slave_State)
 450:	80 91 80 00 	lds	r24, 0x0080	; 0x800080 <USI_I2C_Slave_State>
 454:	82 30       	cpi	r24, 0x02	; 2
 456:	09 f4       	brne	.+2      	; 0x45a <__vector_14+0x1c>
 458:	51 c0       	rjmp	.+162    	; 0x4fc <__vector_14+0xbe>
 45a:	00 f1       	brcs	.+64     	; 0x49c <__vector_14+0x5e>
 45c:	84 30       	cpi	r24, 0x04	; 4
 45e:	a1 f1       	breq	.+104    	; 0x4c8 <__vector_14+0x8a>
 460:	08 f4       	brcc	.+2      	; 0x464 <__vector_14+0x26>
 462:	44 c0       	rjmp	.+136    	; 0x4ec <__vector_14+0xae>
 464:	85 30       	cpi	r24, 0x05	; 5
 466:	89 f4       	brne	.+34     	; 0x48a <__vector_14+0x4c>
		//  After waiting for the master to finish transmission, this reads    //
		//  USIDR into either the i2c buffer or internal address, then sends   //
		//  an acknowledgement to the master.                                  //
		/////////////////////////////////////////////////////////////////////////
		case USI_SLAVE_RECV_DATA_ACK_SEND:
			USI_I2C_Slave_State = USI_SLAVE_RECV_DATA_WAIT;
 468:	84 e0       	ldi	r24, 0x04	; 4
 46a:	80 93 80 00 	sts	0x0080, r24	; 0x800080 <USI_I2C_Slave_State>

			if(USI_Slave_internal_address_set == 0)
 46e:	80 91 62 00 	lds	r24, 0x0062	; 0x800062 <__data_end>
 472:	81 11       	cpse	r24, r1
 474:	5a c0       	rjmp	.+180    	; 0x52a <__vector_14+0xec>
			{
				USI_Slave_internal_address = USIDR;
 476:	8f b1       	in	r24, 0x0f	; 15
 478:	80 93 63 00 	sts	0x0063, r24	; 0x800063 <USI_Slave_internal_address>
				USI_Slave_internal_address_set = 1;
 47c:	81 e0       	ldi	r24, 0x01	; 1
 47e:	80 93 62 00 	sts	0x0062, r24	; 0x800062 <__data_end>
			else if(USI_Slave_internal_address <= USI_SLAVE_REGISTER_COUNT)
			{
				*(USI_Slave_register_buffer[USI_Slave_internal_address]) = USIDR;
			}

			USIDR = 0;
 482:	1f b8       	out	0x0f, r1	; 15
			USI_SET_SDA_OUTPUT();
 484:	b8 9a       	sbi	0x17, 0	; 23
			USISR = USI_SLAVE_COUNT_ACK_USISR;
 486:	8e e7       	ldi	r24, 0x7E	; 126
 488:	8e b9       	out	0x0e, r24	; 14
			break;
	}
}
 48a:	ff 91       	pop	r31
 48c:	ef 91       	pop	r30
 48e:	9f 91       	pop	r25
 490:	8f 91       	pop	r24
 492:	0f 90       	pop	r0
 494:	0f be       	out	0x3f, r0	; 63
 496:	0f 90       	pop	r0
 498:	1f 90       	pop	r1
 49a:	18 95       	reti
//  the I2C protocol for proper transmission.                                  //
/////////////////////////////////////////////////////////////////////////////////

ISR(USI_OVF_vect)
{
	switch (USI_I2C_Slave_State)
 49c:	88 23       	and	r24, r24
 49e:	b1 f1       	breq	.+108    	; 0x50c <__vector_14+0xce>
 4a0:	81 30       	cpi	r24, 0x01	; 1
 4a2:	99 f7       	brne	.-26     	; 0x48a <__vector_14+0x4c>
		//  enable data transmission in the next 8 clocks.  Set to wait 8      //
		//  clocks and proceed to wait for ACK.                                //
		/////////////////////////////////////////////////////////////////////////
		case USI_SLAVE_SEND_DATA:

			if(USI_Slave_internal_address <= USI_SLAVE_REGISTER_COUNT)
 4a4:	e0 91 63 00 	lds	r30, 0x0063	; 0x800063 <USI_Slave_internal_address>
 4a8:	e9 30       	cpi	r30, 0x09	; 9
 4aa:	a8 f0       	brcs	.+42     	; 0x4d6 <__vector_14+0x98>
			{
				USIDR = *(USI_Slave_register_buffer[USI_Slave_internal_address]);
			}
			else
			{
				USIDR = 0x00;
 4ac:	1f b8       	out	0x0f, r1	; 15
			}
			USI_Slave_internal_address++;
 4ae:	80 91 63 00 	lds	r24, 0x0063	; 0x800063 <USI_Slave_internal_address>
 4b2:	8f 5f       	subi	r24, 0xFF	; 255
 4b4:	80 93 63 00 	sts	0x0063, r24	; 0x800063 <USI_Slave_internal_address>
			USI_I2C_Slave_State = USI_SLAVE_SEND_DATA_ACK_WAIT;
 4b8:	82 e0       	ldi	r24, 0x02	; 2
 4ba:	80 93 80 00 	sts	0x0080, r24	; 0x800080 <USI_I2C_Slave_State>

			//To send data, DDR for SDA must be 1 (Output) and PORT for SDA
			//must also be 1 (line drives low on USIDR MSB = 0 or PORT = 0)
			USI_SET_SDA_OUTPUT();
 4be:	b8 9a       	sbi	0x17, 0	; 23
			PORT_USI |= (1 << PORT_USI_SDA);
 4c0:	c0 9a       	sbi	0x18, 0	; 24
			USISR = USI_SLAVE_COUNT_BYTE_USISR;
 4c2:	80 e7       	ldi	r24, 0x70	; 112
 4c4:	8e b9       	out	0x0e, r24	; 14
			break;
 4c6:	e1 cf       	rjmp	.-62     	; 0x48a <__vector_14+0x4c>
		//                                                                     //
		//  Prepares to wait 8 clocks to receive a data byte from the master.  //
		/////////////////////////////////////////////////////////////////////////
		case USI_SLAVE_RECV_DATA_WAIT:

			USI_I2C_Slave_State = USI_SLAVE_RECV_DATA_ACK_SEND;
 4c8:	85 e0       	ldi	r24, 0x05	; 5
 4ca:	80 93 80 00 	sts	0x0080, r24	; 0x800080 <USI_I2C_Slave_State>

			USI_SET_SDA_INPUT();
 4ce:	b8 98       	cbi	0x17, 0	; 23
			USISR = USI_SLAVE_COUNT_BYTE_USISR;
 4d0:	80 e7       	ldi	r24, 0x70	; 112
 4d2:	8e b9       	out	0x0e, r24	; 14
			break;
 4d4:	da cf       	rjmp	.-76     	; 0x48a <__vector_14+0x4c>
		/////////////////////////////////////////////////////////////////////////
		case USI_SLAVE_SEND_DATA:

			if(USI_Slave_internal_address <= USI_SLAVE_REGISTER_COUNT)
			{
				USIDR = *(USI_Slave_register_buffer[USI_Slave_internal_address]);
 4d6:	f0 e0       	ldi	r31, 0x00	; 0
 4d8:	ee 0f       	add	r30, r30
 4da:	ff 1f       	adc	r31, r31
 4dc:	ef 57       	subi	r30, 0x7F	; 127
 4de:	ff 4f       	sbci	r31, 0xFF	; 255
 4e0:	01 90       	ld	r0, Z+
 4e2:	f0 81       	ld	r31, Z
 4e4:	e0 2d       	mov	r30, r0
 4e6:	80 81       	ld	r24, Z
 4e8:	8f b9       	out	0x0f, r24	; 15
 4ea:	e1 cf       	rjmp	.-62     	; 0x4ae <__vector_14+0x70>
		//  a reset to START conditions, if ACK, fall through into SEND_DATA   //
		//  to continue sending data.                                          //
		/////////////////////////////////////////////////////////////////////////
		case USI_SLAVE_SEND_DATA_ACK_CHECK:

			if(USIDR)
 4ec:	8f b1       	in	r24, 0x0f	; 15
 4ee:	88 23       	and	r24, r24
 4f0:	c9 f2       	breq	.-78     	; 0x4a4 <__vector_14+0x66>
			{
				//The master sent a NACK, indicating that it will not accept
				//more data.  Reset into START condition state
				USICR = USI_SLAVE_SET_START_COND_USICR;
 4f2:	88 ea       	ldi	r24, 0xA8	; 168
 4f4:	8d b9       	out	0x0d, r24	; 13
				USISR = USI_SLAVE_SET_START_COND_USISR;
 4f6:	80 e7       	ldi	r24, 0x70	; 112
 4f8:	8e b9       	out	0x0e, r24	; 14
				return;
 4fa:	c7 cf       	rjmp	.-114    	; 0x48a <__vector_14+0x4c>
		case USI_SLAVE_SEND_DATA_ACK_WAIT:

			//After sending, immediately shut off PORT = 1 to prevent driving
			//the line high (I2C should *NEVER* drive high, and could damage
			//connected devices if operating at different voltage levels)
			PORT_USI &= ~(1 << PORT_USI_SDA);
 4fc:	c0 98       	cbi	0x18, 0	; 24
			USI_I2C_Slave_State = USI_SLAVE_SEND_DATA_ACK_CHECK;
 4fe:	83 e0       	ldi	r24, 0x03	; 3
 500:	80 93 80 00 	sts	0x0080, r24	; 0x800080 <USI_I2C_Slave_State>
			USI_SET_SDA_INPUT();
 504:	b8 98       	cbi	0x17, 0	; 23
			USISR = USI_SLAVE_COUNT_ACK_USISR;
 506:	8e e7       	ldi	r24, 0x7E	; 126
 508:	8e b9       	out	0x0e, r24	; 14
			break;
 50a:	bf cf       	rjmp	.-130    	; 0x48a <__vector_14+0x4c>
		//  If the address was not for this device, the USI system is          //
		//  re-initialized for start condition.                                //
		/////////////////////////////////////////////////////////////////////////
		case USI_SLAVE_CHECK_ADDRESS:

			if((USIDR == 0) || ((USIDR >> 1) == usi_i2c_slave_address))
 50c:	8f b1       	in	r24, 0x0f	; 15
 50e:	88 23       	and	r24, r24
 510:	31 f0       	breq	.+12     	; 0x51e <__vector_14+0xe0>
 512:	8f b1       	in	r24, 0x0f	; 15
 514:	86 95       	lsr	r24
 516:	90 91 60 00 	lds	r25, 0x0060	; 0x800060 <__data_start>
 51a:	89 13       	cpse	r24, r25
 51c:	ea cf       	rjmp	.-44     	; 0x4f2 <__vector_14+0xb4>
			{
				if (USIDR & 0x01)
 51e:	78 9b       	sbis	0x0f, 0	; 15
 520:	14 c0       	rjmp	.+40     	; 0x54a <__vector_14+0x10c>
				{
					USI_I2C_Slave_State = USI_SLAVE_SEND_DATA;
 522:	81 e0       	ldi	r24, 0x01	; 1
 524:	80 93 80 00 	sts	0x0080, r24	; 0x800080 <USI_I2C_Slave_State>
 528:	ac cf       	rjmp	.-168    	; 0x482 <__vector_14+0x44>
			if(USI_Slave_internal_address_set == 0)
			{
				USI_Slave_internal_address = USIDR;
				USI_Slave_internal_address_set = 1;
			}
			else if(USI_Slave_internal_address <= USI_SLAVE_REGISTER_COUNT)
 52a:	e0 91 63 00 	lds	r30, 0x0063	; 0x800063 <USI_Slave_internal_address>
 52e:	e9 30       	cpi	r30, 0x09	; 9
 530:	08 f0       	brcs	.+2      	; 0x534 <__vector_14+0xf6>
 532:	a7 cf       	rjmp	.-178    	; 0x482 <__vector_14+0x44>
			{
				*(USI_Slave_register_buffer[USI_Slave_internal_address]) = USIDR;
 534:	f0 e0       	ldi	r31, 0x00	; 0
 536:	ee 0f       	add	r30, r30
 538:	ff 1f       	adc	r31, r31
 53a:	ef 57       	subi	r30, 0x7F	; 127
 53c:	ff 4f       	sbci	r31, 0xFF	; 255
 53e:	01 90       	ld	r0, Z+
 540:	f0 81       	ld	r31, Z
 542:	e0 2d       	mov	r30, r0
 544:	8f b1       	in	r24, 0x0f	; 15
 546:	80 83       	st	Z, r24
 548:	9c cf       	rjmp	.-200    	; 0x482 <__vector_14+0x44>
					USI_I2C_Slave_State = USI_SLAVE_SEND_DATA;
					//leds[2].value=1;
				}
				else
				{
					USI_Slave_internal_address_set = 0;
 54a:	10 92 62 00 	sts	0x0062, r1	; 0x800062 <__data_end>
					USI_I2C_Slave_State = USI_SLAVE_RECV_DATA_WAIT;
 54e:	84 e0       	ldi	r24, 0x04	; 4
 550:	80 93 80 00 	sts	0x0080, r24	; 0x800080 <USI_I2C_Slave_State>
 554:	96 cf       	rjmp	.-212    	; 0x482 <__vector_14+0x44>

00000556 <_exit>:
 556:	f8 94       	cli

00000558 <__stop_program>:
 558:	ff cf       	rjmp	.-2      	; 0x558 <__stop_program>
